; ModuleID = '55/1459.c'
source_filename = "55/1459.c"
target datalayout = "e-m:e-p270:32:32-p271:32:32-p272:64:64-i64:64-f80:128-n8:16:32:64-S128"
target triple = "x86_64-pc-linux-gnu"

@.str = private unnamed_addr constant [7 x i8] c"%d%s%d\00", align 1
@.str.1 = private unnamed_addr constant [3 x i8] c"0\0A\00", align 1
@.str.2 = private unnamed_addr constant [3 x i8] c"%c\00", align 1
@.str.3 = private unnamed_addr constant [2 x i8] c"\0A\00", align 1

; Function Attrs: noinline nounwind uwtable
define dso_local i32 @main() #0 {
  %1 = alloca i32, align 4
  %2 = alloca [20 x i8], align 16
  %3 = alloca [40 x i8], align 16
  %4 = alloca i32, align 4
  %5 = alloca i32, align 4
  %6 = alloca i32, align 4
  %7 = alloca i32, align 4
  %8 = alloca i32, align 4
  %9 = alloca i64, align 8
  store i32 0, i32* %1, align 4
  store i64 0, i64* %9, align 8
  %10 = getelementptr inbounds [20 x i8], [20 x i8]* %2, i64 0, i64 0
  %11 = call i32 (i8*, ...) @__isoc99_scanf(i8* getelementptr inbounds ([7 x i8], [7 x i8]* @.str, i64 0, i64 0), i32* %6, i8* %10, i32* %7)
  %12 = getelementptr inbounds [20 x i8], [20 x i8]* %2, i64 0, i64 0
  %13 = call i64 @strlen(i8* %12) #3
  %14 = trunc i64 %13 to i32
  store i32 %14, i32* %8, align 4
  store i32 0, i32* %4, align 4
  br label %15

15:                                               ; preds = %87, %0
  %16 = load i32, i32* %4, align 4
  %17 = load i32, i32* %8, align 4
  %18 = icmp slt i32 %16, %17
  br i1 %18, label %19, label %90

19:                                               ; preds = %15
  %20 = load i32, i32* %4, align 4
  %21 = sext i32 %20 to i64
  %22 = getelementptr inbounds [20 x i8], [20 x i8]* %2, i64 0, i64 %21
  %23 = load i8, i8* %22, align 1
  %24 = sext i8 %23 to i32
  %25 = icmp sge i32 %24, 97
  br i1 %25, label %26, label %46

26:                                               ; preds = %19
  %27 = load i32, i32* %4, align 4
  %28 = sext i32 %27 to i64
  %29 = getelementptr inbounds [20 x i8], [20 x i8]* %2, i64 0, i64 %28
  %30 = load i8, i8* %29, align 1
  %31 = sext i8 %30 to i32
  %32 = icmp sle i32 %31, 122
  br i1 %32, label %33, label %46

33:                                               ; preds = %26
  %34 = load i32, i32* %6, align 4
  %35 = sext i32 %34 to i64
  %36 = load i64, i64* %9, align 8
  %37 = mul nsw i64 %35, %36
  %38 = load i32, i32* %4, align 4
  %39 = sext i32 %38 to i64
  %40 = getelementptr inbounds [20 x i8], [20 x i8]* %2, i64 0, i64 %39
  %41 = load i8, i8* %40, align 1
  %42 = sext i8 %41 to i64
  %43 = add nsw i64 %37, %42
  %44 = sub nsw i64 %43, 97
  %45 = add nsw i64 %44, 10
  store i64 %45, i64* %9, align 8
  br label %86

46:                                               ; preds = %26, %19
  %47 = load i32, i32* %4, align 4
  %48 = sext i32 %47 to i64
  %49 = getelementptr inbounds [20 x i8], [20 x i8]* %2, i64 0, i64 %48
  %50 = load i8, i8* %49, align 1
  %51 = sext i8 %50 to i32
  %52 = icmp sge i32 %51, 65
  br i1 %52, label %53, label %73

53:                                               ; preds = %46
  %54 = load i32, i32* %4, align 4
  %55 = sext i32 %54 to i64
  %56 = getelementptr inbounds [20 x i8], [20 x i8]* %2, i64 0, i64 %55
  %57 = load i8, i8* %56, align 1
  %58 = sext i8 %57 to i32
  %59 = icmp sle i32 %58, 90
  br i1 %59, label %60, label %73

60:                                               ; preds = %53
  %61 = load i32, i32* %6, align 4
  %62 = sext i32 %61 to i64
  %63 = load i64, i64* %9, align 8
  %64 = mul nsw i64 %62, %63
  %65 = load i32, i32* %4, align 4
  %66 = sext i32 %65 to i64
  %67 = getelementptr inbounds [20 x i8], [20 x i8]* %2, i64 0, i64 %66
  %68 = load i8, i8* %67, align 1
  %69 = sext i8 %68 to i64
  %70 = add nsw i64 %64, %69
  %71 = sub nsw i64 %70, 65
  %72 = add nsw i64 %71, 10
  store i64 %72, i64* %9, align 8
  br label %85

73:                                               ; preds = %53, %46
  %74 = load i32, i32* %6, align 4
  %75 = sext i32 %74 to i64
  %76 = load i64, i64* %9, align 8
  %77 = mul nsw i64 %75, %76
  %78 = load i32, i32* %4, align 4
  %79 = sext i32 %78 to i64
  %80 = getelementptr inbounds [20 x i8], [20 x i8]* %2, i64 0, i64 %79
  %81 = load i8, i8* %80, align 1
  %82 = sext i8 %81 to i64
  %83 = add nsw i64 %77, %82
  %84 = sub nsw i64 %83, 48
  store i64 %84, i64* %9, align 8
  br label %85

85:                                               ; preds = %73, %60
  br label %86

86:                                               ; preds = %85, %33
  br label %87

87:                                               ; preds = %86
  %88 = load i32, i32* %4, align 4
  %89 = add nsw i32 %88, 1
  store i32 %89, i32* %4, align 4
  br label %15

90:                                               ; preds = %15
  store i32 0, i32* %4, align 4
  %91 = load i64, i64* %9, align 8
  %92 = icmp eq i64 %91, 0
  br i1 %92, label %93, label %95

93:                                               ; preds = %90
  %94 = call i32 (i8*, ...) @printf(i8* getelementptr inbounds ([3 x i8], [3 x i8]* @.str.1, i64 0, i64 0))
  store i32 0, i32* %1, align 4
  br label %151

95:                                               ; preds = %90
  br label %96

96:                                               ; preds = %128, %95
  %97 = load i64, i64* %9, align 8
  %98 = icmp sgt i64 %97, 0
  br i1 %98, label %99, label %133

99:                                               ; preds = %96
  %100 = load i64, i64* %9, align 8
  %101 = load i32, i32* %7, align 4
  %102 = sext i32 %101 to i64
  %103 = srem i64 %100, %102
  %104 = icmp sle i64 %103, 9
  br i1 %104, label %105, label %116

105:                                              ; preds = %99
  %106 = load i64, i64* %9, align 8
  %107 = load i32, i32* %7, align 4
  %108 = sext i32 %107 to i64
  %109 = srem i64 %106, %108
  %110 = add nsw i64 %109, 48
  %111 = trunc i64 %110 to i8
  %112 = load i32, i32* %4, align 4
  %113 = add nsw i32 %112, 1
  store i32 %113, i32* %4, align 4
  %114 = sext i32 %112 to i64
  %115 = getelementptr inbounds [40 x i8], [40 x i8]* %3, i64 0, i64 %114
  store i8 %111, i8* %115, align 1
  br label %128

116:                                              ; preds = %99
  %117 = load i64, i64* %9, align 8
  %118 = load i32, i32* %7, align 4
  %119 = sext i32 %118 to i64
  %120 = srem i64 %117, %119
  %121 = sub nsw i64 %120, 10
  %122 = add nsw i64 %121, 65
  %123 = trunc i64 %122 to i8
  %124 = load i32, i32* %4, align 4
  %125 = add nsw i32 %124, 1
  store i32 %125, i32* %4, align 4
  %126 = sext i32 %124 to i64
  %127 = getelementptr inbounds [40 x i8], [40 x i8]* %3, i64 0, i64 %126
  store i8 %123, i8* %127, align 1
  br label %128

128:                                              ; preds = %116, %105
  %129 = load i64, i64* %9, align 8
  %130 = load i32, i32* %7, align 4
  %131 = sext i32 %130 to i64
  %132 = sdiv i64 %129, %131
  store i64 %132, i64* %9, align 8
  br label %96

133:                                              ; preds = %96
  %134 = load i32, i32* %4, align 4
  %135 = sub nsw i32 %134, 1
  store i32 %135, i32* %5, align 4
  br label %136

136:                                              ; preds = %146, %133
  %137 = load i32, i32* %5, align 4
  %138 = icmp sge i32 %137, 0
  br i1 %138, label %139, label %149

139:                                              ; preds = %136
  %140 = load i32, i32* %5, align 4
  %141 = sext i32 %140 to i64
  %142 = getelementptr inbounds [40 x i8], [40 x i8]* %3, i64 0, i64 %141
  %143 = load i8, i8* %142, align 1
  %144 = sext i8 %143 to i32
  %145 = call i32 (i8*, ...) @printf(i8* getelementptr inbounds ([3 x i8], [3 x i8]* @.str.2, i64 0, i64 0), i32 %144)
  br label %146

146:                                              ; preds = %139
  %147 = load i32, i32* %5, align 4
  %148 = add nsw i32 %147, -1
  store i32 %148, i32* %5, align 4
  br label %136

149:                                              ; preds = %136
  %150 = call i32 (i8*, ...) @printf(i8* getelementptr inbounds ([2 x i8], [2 x i8]* @.str.3, i64 0, i64 0))
  store i32 0, i32* %1, align 4
  br label %151

151:                                              ; preds = %149, %93
  %152 = load i32, i32* %1, align 4
  ret i32 %152
}

declare dso_local i32 @__isoc99_scanf(i8*, ...) #1

; Function Attrs: nounwind readonly
declare dso_local i64 @strlen(i8*) #2

declare dso_local i32 @printf(i8*, ...) #1


!llvm.module.flags = !{!0}
!llvm.ident = !{!1}

!0 = !{i32 1, !"wchar_size", i32 4}
!1 = !{!"clang version 10.0.0-4ubuntu1 "}
